target datalayout = "e-m:e-p270:32:32-p271:32:32-p272:64:64-i64:64-i128:128-f80:128-n8:16:32:64-S128"
target triple = "x86_64-pc-linux-gnu"

%"struct.cv::rgb" = type { i8, i8, i8 }
%"class.std::__cxx11::basic_string" = type { %"struct.std::__cxx11::basic_string<char>::_Alloc_hider", i64, %union.anon }
%"struct.std::__cxx11::basic_string<char>::_Alloc_hider" = type { ptr }
%union.anon = type { i64, [8 x i8] }
%"class.cv::PngEncoder" = type <{ %"class.cv::BaseImageEncoder", %"class.cv::AutoBuffer.31", %"class.cv::AutoBuffer.31", %"class.cv::AutoBuffer.31", %"class.cv::AutoBuffer.31", %"class.cv::AutoBuffer.31", %"class.cv::AutoBuffer.31", %"class.cv::AutoBuffer.31", %struct.z_stream_s, %struct.z_stream_s, [6 x %"struct.cv::OP"], [256 x %"struct.cv::rgb"], [256 x i8], i32, i32, i32, [4 x i8] }>
%"class.cv::BaseImageEncoder" = type { ptr, %"class.std::__cxx11::basic_string", %"class.std::__cxx11::basic_string", ptr, i8, %"class.std::__cxx11::basic_string" }
%"class.cv::AutoBuffer.31" = type { ptr, i64, [1032 x i8] }
%struct.z_stream_s = type { ptr, i32, i64, ptr, i32, i64, ptr, ptr, ptr, ptr, ptr, i32, i64, i64 }
%"struct.cv::OP" = type { ptr, i32, i32, i32, i32, i32, i32, i32 }

@.str.8 = private unnamed_addr constant [40 x i8] c"Portable Network Graphics files (*.png)\00", align 1

; Function Attrs: mustprogress nounwind uwtable
define linkonce_odr hidden noundef i64 @_ZNSt11char_traitsIcE6lengthEPKc(ptr noundef %0) #4 comdat align 2 {
  %2 = alloca ptr, align 8
  store ptr %0, ptr %2, align 8, !tbaa !42
  %3 = load ptr, ptr %2, align 8, !tbaa !42
  %4 = call i64 @strlen(ptr noundef %3) #3
  ret i64 %4
}

; Function Attrs: mustprogress nounwind uwtable
define available_externally noundef i64 @_ZNKSt7__cxx1112basic_stringIcSt11char_traitsIcESaIcEE4sizeEv(ptr noundef nonnull align 8 dereferenceable(32) %0) #4 align 2 {
  %2 = alloca ptr, align 8
  store ptr %0, ptr %2, align 8, !tbaa !115
  %3 = load ptr, ptr %2, align 8
  %4 = getelementptr inbounds nuw %"class.std::__cxx11::basic_string", ptr %3, i32 0, i32 1
  %5 = load i64, ptr %4, align 8, !tbaa !410
  ret i64 %5
}

; Function Attrs: noinline noreturn nounwind uwtable
define linkonce_odr hidden void @__clang_call_terminate(ptr noundef %0) #9 comdat {
  %2 = call ptr @__cxa_begin_catch(ptr %0) #3
  call void @_ZSt9terminatev() #26
  unreachable
}

; Function Attrs: inlinehint mustprogress nounwind uwtable
define linkonce_odr hidden void @_ZN2cv10AutoBufferIhLm1032EE10deallocateEv(ptr noundef nonnull align 8 dereferenceable(1048) %0) #7 comdat align 2 {
  %2 = alloca ptr, align 8
  store ptr %0, ptr %2, align 8, !tbaa !222
  %3 = load ptr, ptr %2, align 8
  %4 = getelementptr inbounds nuw %"class.cv::AutoBuffer.31", ptr %3, i32 0, i32 0
  %5 = load ptr, ptr %4, align 8, !tbaa !224
  %6 = getelementptr inbounds nuw %"class.cv::AutoBuffer.31", ptr %3, i32 0, i32 2
  %7 = getelementptr inbounds [1032 x i8], ptr %6, i64 0, i64 0
  %8 = icmp ne ptr %5, %7
  br i1 %8, label %9, label %19

9:                                                ; preds = %1
  %10 = getelementptr inbounds nuw %"class.cv::AutoBuffer.31", ptr %3, i32 0, i32 0
  %11 = load ptr, ptr %10, align 8, !tbaa !224
  %12 = icmp eq ptr %11, null
  br i1 %12, label %14, label %13

13:                                               ; preds = %9
  call void @_ZdaPv(ptr noundef %11) #27
  br label %14

14:                                               ; preds = %13, %9
  %15 = getelementptr inbounds nuw %"class.cv::AutoBuffer.31", ptr %3, i32 0, i32 2
  %16 = getelementptr inbounds [1032 x i8], ptr %15, i64 0, i64 0
  %17 = getelementptr inbounds nuw %"class.cv::AutoBuffer.31", ptr %3, i32 0, i32 0
  store ptr %16, ptr %17, align 8, !tbaa !224
  %18 = getelementptr inbounds nuw %"class.cv::AutoBuffer.31", ptr %3, i32 0, i32 1
  store i64 1032, ptr %18, align 8, !tbaa !225
  br label %19

19:                                               ; preds = %14, %1
  ret void
}

; Function Attrs: mustprogress uwtable
define available_externally noundef nonnull align 8 dereferenceable(32) ptr @_ZNSt7__cxx1112basic_stringIcSt11char_traitsIcESaIcEE6assignEPKc(ptr noundef nonnull align 8 dereferenceable(32) %0, ptr noundef %1) #5 align 2 {
  %3 = alloca ptr, align 8
  %4 = alloca ptr, align 8
  store ptr %0, ptr %3, align 8, !tbaa !115
  store ptr %1, ptr %4, align 8, !tbaa !42
  %5 = load ptr, ptr %3, align 8
  %6 = call noundef i64 @_ZNKSt7__cxx1112basic_stringIcSt11char_traitsIcESaIcEE4sizeEv(ptr noundef nonnull align 8 dereferenceable(32) %5) #3
  %7 = load ptr, ptr %4, align 8, !tbaa !42
  %8 = load ptr, ptr %4, align 8, !tbaa !42
  %9 = call noundef i64 @_ZNSt11char_traitsIcE6lengthEPKc(ptr noundef %8)
  %10 = call noundef nonnull align 8 dereferenceable(32) ptr @_ZNSt7__cxx1112basic_stringIcSt11char_traitsIcESaIcEE10_M_replaceEmmPKcm(ptr noundef nonnull align 8 dereferenceable(32) %5, i64 noundef 0, i64 noundef %6, ptr noundef %7, i64 noundef %9)
  ret ptr %10
}

; Function Attrs: inlinehint mustprogress nounwind uwtable
define linkonce_odr hidden void @_ZN2cv10AutoBufferIhLm1032EED2Ev(ptr noundef nonnull align 8 dereferenceable(1048) %0) unnamed_addr #7 comdat align 2 personality ptr @__gxx_personality_v0 {
  %2 = alloca ptr, align 8
  store ptr %0, ptr %2, align 8, !tbaa !222
  %3 = load ptr, ptr %2, align 8
  invoke void @_ZN2cv10AutoBufferIhLm1032EE10deallocateEv(ptr noundef nonnull align 8 dereferenceable(1048) %3)
          to label %4 unwind label %5

4:                                                ; preds = %1
  ret void

5:                                                ; preds = %1
  %6 = landingpad { ptr, i32 }
          catch ptr null
  %7 = extractvalue { ptr, i32 } %6, 0
  call void @__clang_call_terminate(ptr %7) #26
  unreachable
}

; Function Attrs: mustprogress uwtable
define available_externally noundef nonnull align 8 dereferenceable(32) ptr @_ZNSt7__cxx1112basic_stringIcSt11char_traitsIcESaIcEEaSEPKc(ptr noundef nonnull align 8 dereferenceable(32) %0, ptr noundef %1) #5 align 2 {
  %3 = alloca ptr, align 8
  %4 = alloca ptr, align 8
  store ptr %0, ptr %3, align 8, !tbaa !115
  store ptr %1, ptr %4, align 8, !tbaa !42
  %5 = load ptr, ptr %3, align 8
  %6 = load ptr, ptr %4, align 8, !tbaa !42
  %7 = call noundef nonnull align 8 dereferenceable(32) ptr @_ZNSt7__cxx1112basic_stringIcSt11char_traitsIcESaIcEE6assignEPKc(ptr noundef nonnull align 8 dereferenceable(32) %5, ptr noundef %6)
  ret ptr %7
}

; Function Attrs: inlinehint mustprogress nounwind uwtable
define linkonce_odr hidden void @_ZN2cv10AutoBufferIhLm1032EEC2Ev(ptr noundef nonnull align 8 dereferenceable(1048) %0) unnamed_addr #7 comdat align 2 {
  %2 = alloca ptr, align 8
  store ptr %0, ptr %2, align 8, !tbaa !222
  %3 = load ptr, ptr %2, align 8
  %4 = getelementptr inbounds nuw %"class.cv::AutoBuffer.31", ptr %3, i32 0, i32 2
  %5 = getelementptr inbounds [1032 x i8], ptr %4, i64 0, i64 0
  %6 = getelementptr inbounds nuw %"class.cv::AutoBuffer.31", ptr %3, i32 0, i32 0
  store ptr %5, ptr %6, align 8, !tbaa !224
  %7 = getelementptr inbounds nuw %"class.cv::AutoBuffer.31", ptr %3, i32 0, i32 1
  store i64 1032, ptr %7, align 8, !tbaa !225
  ret void
}

; Function Attrs: mustprogress uwtable
define hidden void @_ZN2cv10PngEncoderC2Ev(ptr noundef nonnull align 8 dereferenceable(8960) %0) unnamed_addr #5 align 2 personality ptr @__gxx_personality_v0 {
  %2 = alloca ptr, align 8
  %3 = alloca ptr, align 8
  %4 = alloca i32, align 4
  store ptr %0, ptr %2, align 8, !tbaa !209
  %5 = load ptr, ptr %2, align 8
  call void @_ZN2cv16BaseImageEncoderC2Ev(ptr noundef nonnull align 8 dereferenceable(120) %5)
  store ptr getelementptr inbounds inrange(-16, 88) ({ [13 x ptr] }, ptr @_ZTVN2cv10PngEncoderE, i32 0, i32 0, i32 2), ptr %5, align 8, !tbaa !52
  %6 = getelementptr inbounds nuw %"class.cv::PngEncoder", ptr %5, i32 0, i32 1
  invoke void @_ZN2cv10AutoBufferIhLm1032EEC2Ev(ptr noundef nonnull align 8 dereferenceable(1048) %6)
          to label %7 unwind label %37

7:                                                ; preds = %1
  %8 = getelementptr inbounds nuw %"class.cv::PngEncoder", ptr %5, i32 0, i32 2
  invoke void @_ZN2cv10AutoBufferIhLm1032EEC2Ev(ptr noundef nonnull align 8 dereferenceable(1048) %8)
          to label %9 unwind label %41

9:                                                ; preds = %7
  %10 = getelementptr inbounds nuw %"class.cv::PngEncoder", ptr %5, i32 0, i32 3
  invoke void @_ZN2cv10AutoBufferIhLm1032EEC2Ev(ptr noundef nonnull align 8 dereferenceable(1048) %10)
          to label %11 unwind label %45

11:                                               ; preds = %9
  %12 = getelementptr inbounds nuw %"class.cv::PngEncoder", ptr %5, i32 0, i32 4
  invoke void @_ZN2cv10AutoBufferIhLm1032EEC2Ev(ptr noundef nonnull align 8 dereferenceable(1048) %12)
          to label %13 unwind label %49

13:                                               ; preds = %11
  %14 = getelementptr inbounds nuw %"class.cv::PngEncoder", ptr %5, i32 0, i32 5
  invoke void @_ZN2cv10AutoBufferIhLm1032EEC2Ev(ptr noundef nonnull align 8 dereferenceable(1048) %14)
          to label %15 unwind label %53

15:                                               ; preds = %13
  %16 = getelementptr inbounds nuw %"class.cv::PngEncoder", ptr %5, i32 0, i32 6
  invoke void @_ZN2cv10AutoBufferIhLm1032EEC2Ev(ptr noundef nonnull align 8 dereferenceable(1048) %16)
          to label %17 unwind label %57

17:                                               ; preds = %15
  %18 = getelementptr inbounds nuw %"class.cv::PngEncoder", ptr %5, i32 0, i32 7
  invoke void @_ZN2cv10AutoBufferIhLm1032EEC2Ev(ptr noundef nonnull align 8 dereferenceable(1048) %18)
          to label %19 unwind label %61

19:                                               ; preds = %17
  %20 = getelementptr inbounds nuw %"class.cv::BaseImageEncoder", ptr %5, i32 0, i32 1
  %21 = invoke noundef nonnull align 8 dereferenceable(32) ptr @_ZNSt7__cxx1112basic_stringIcSt11char_traitsIcESaIcEEaSEPKc(ptr noundef nonnull align 8 dereferenceable(32) %20, ptr noundef @.str.8)
          to label %22 unwind label %65

22:                                               ; preds = %19
  %23 = getelementptr inbounds nuw %"class.cv::BaseImageEncoder", ptr %5, i32 0, i32 4
  store i8 1, ptr %23, align 8, !tbaa !211
  %24 = getelementptr inbounds nuw %"class.cv::PngEncoder", ptr %5, i32 0, i32 8
  %25 = getelementptr inbounds nuw %struct.z_stream_s, ptr %24, i32 0, i32 8
  store ptr null, ptr %25, align 8, !tbaa !213
  %26 = getelementptr inbounds nuw %"class.cv::PngEncoder", ptr %5, i32 0, i32 9
  %27 = getelementptr inbounds nuw %struct.z_stream_s, ptr %26, i32 0, i32 8
  store ptr null, ptr %27, align 8, !tbaa !218
  %28 = getelementptr inbounds nuw %"class.cv::PngEncoder", ptr %5, i32 0, i32 15
  store i32 0, ptr %28, align 8, !tbaa !219
  %29 = getelementptr inbounds nuw %"class.cv::PngEncoder", ptr %5, i32 0, i32 14
  store i32 0, ptr %29, align 4, !tbaa !220
  %30 = getelementptr inbounds nuw %"class.cv::PngEncoder", ptr %5, i32 0, i32 13
  store i32 0, ptr %30, align 8, !tbaa !221
  %31 = getelementptr inbounds nuw %"class.cv::PngEncoder", ptr %5, i32 0, i32 11
  %32 = getelementptr inbounds [256 x %"struct.cv::rgb"], ptr %31, i64 0, i64 0
  call void @llvm.memset.p0.i64(ptr align 8 %32, i8 0, i64 768, i1 false)
  %33 = getelementptr inbounds nuw %"class.cv::PngEncoder", ptr %5, i32 0, i32 12
  %34 = getelementptr inbounds [256 x i8], ptr %33, i64 0, i64 0
  call void @llvm.memset.p0.i64(ptr align 8 %34, i8 0, i64 256, i1 false)
  %35 = getelementptr inbounds nuw %"class.cv::PngEncoder", ptr %5, i32 0, i32 10
  %36 = getelementptr inbounds [6 x %"struct.cv::OP"], ptr %35, i64 0, i64 0
  call void @llvm.memset.p0.i64(ptr align 8 %36, i8 0, i64 240, i1 false)
  ret void

37:                                               ; preds = %1
  %38 = landingpad { ptr, i32 }
          cleanup
  %39 = extractvalue { ptr, i32 } %38, 0
  store ptr %39, ptr %3, align 8
  %40 = extractvalue { ptr, i32 } %38, 1
  store i32 %40, ptr %4, align 4
  br label %75

41:                                               ; preds = %7
  %42 = landingpad { ptr, i32 }
          cleanup
  %43 = extractvalue { ptr, i32 } %42, 0
  store ptr %43, ptr %3, align 8
  %44 = extractvalue { ptr, i32 } %42, 1
  store i32 %44, ptr %4, align 4
  br label %74

45:                                               ; preds = %9
  %46 = landingpad { ptr, i32 }
          cleanup
  %47 = extractvalue { ptr, i32 } %46, 0
  store ptr %47, ptr %3, align 8
  %48 = extractvalue { ptr, i32 } %46, 1
  store i32 %48, ptr %4, align 4
  br label %73

49:                                               ; preds = %11
  %50 = landingpad { ptr, i32 }
          cleanup
  %51 = extractvalue { ptr, i32 } %50, 0
  store ptr %51, ptr %3, align 8
  %52 = extractvalue { ptr, i32 } %50, 1
  store i32 %52, ptr %4, align 4
  br label %72

53:                                               ; preds = %13
  %54 = landingpad { ptr, i32 }
          cleanup
  %55 = extractvalue { ptr, i32 } %54, 0
  store ptr %55, ptr %3, align 8
  %56 = extractvalue { ptr, i32 } %54, 1
  store i32 %56, ptr %4, align 4
  br label %71

57:                                               ; preds = %15
  %58 = landingpad { ptr, i32 }
          cleanup
  %59 = extractvalue { ptr, i32 } %58, 0
  store ptr %59, ptr %3, align 8
  %60 = extractvalue { ptr, i32 } %58, 1
  store i32 %60, ptr %4, align 4
  br label %70

61:                                               ; preds = %17
  %62 = landingpad { ptr, i32 }
          cleanup
  %63 = extractvalue { ptr, i32 } %62, 0
  store ptr %63, ptr %3, align 8
  %64 = extractvalue { ptr, i32 } %62, 1
  store i32 %64, ptr %4, align 4
  br label %69

65:                                               ; preds = %19
  %66 = landingpad { ptr, i32 }
          cleanup
  %67 = extractvalue { ptr, i32 } %66, 0
  store ptr %67, ptr %3, align 8
  %68 = extractvalue { ptr, i32 } %66, 1
  store i32 %68, ptr %4, align 4
  call void @_ZN2cv10AutoBufferIhLm1032EED2Ev(ptr noundef nonnull align 8 dereferenceable(1048) %18) #3
  br label %69

69:                                               ; preds = %65, %61
  call void @_ZN2cv10AutoBufferIhLm1032EED2Ev(ptr noundef nonnull align 8 dereferenceable(1048) %16) #3
  br label %70

70:                                               ; preds = %69, %57
  call void @_ZN2cv10AutoBufferIhLm1032EED2Ev(ptr noundef nonnull align 8 dereferenceable(1048) %14) #3
  br label %71

71:                                               ; preds = %70, %53
  call void @_ZN2cv10AutoBufferIhLm1032EED2Ev(ptr noundef nonnull align 8 dereferenceable(1048) %12) #3
  br label %72

72:                                               ; preds = %71, %49
  call void @_ZN2cv10AutoBufferIhLm1032EED2Ev(ptr noundef nonnull align 8 dereferenceable(1048) %10) #3
  br label %73

73:                                               ; preds = %72, %45
  call void @_ZN2cv10AutoBufferIhLm1032EED2Ev(ptr noundef nonnull align 8 dereferenceable(1048) %8) #3
  br label %74

74:                                               ; preds = %73, %41
  call void @_ZN2cv10AutoBufferIhLm1032EED2Ev(ptr noundef nonnull align 8 dereferenceable(1048) %6) #3
  br label %75

75:                                               ; preds = %74, %37
  call void @_ZN2cv16BaseImageEncoderD2Ev(ptr noundef nonnull align 8 dereferenceable(120) %5) #3
  br label %76

76:                                               ; preds = %75
  %77 = load ptr, ptr %3, align 8
  %78 = load i32, ptr %4, align 4
  %79 = insertvalue { ptr, i32 } poison, ptr %77, 0
  %80 = insertvalue { ptr, i32 } %79, i32 %78, 1
  resume { ptr, i32 } %80
}