; Function Attrs: mustprogress uwtable
define hidden void @_ZN2cv10PngEncoderC2Ev(ptr noundef nonnull align 8 dereferenceable(8960) %0) unnamed_addr #5 align 2 personality ptr @__gxx_personality_v0 {
  tail call void @_ZN2cv16BaseImageEncoderC2Ev(ptr noundef nonnull align 8 dereferenceable(120) %0)
  store ptr getelementptr inbounds nuw inrange(-16, 88) (i8, ptr @_ZTVN2cv10PngEncoderE, i64 16), ptr %0, align 8, !tbaa !39
  %2 = getelementptr inbounds nuw i8, ptr %0, i64 120
  %3 = getelementptr inbounds nuw i8, ptr %0, i64 136
  store ptr %3, ptr %2, align 8, !tbaa !209
  %4 = getelementptr inbounds nuw i8, ptr %0, i64 128
  store i64 1032, ptr %4, align 8, !tbaa !211
  %5 = getelementptr inbounds nuw i8, ptr %0, i64 1168
  %6 = getelementptr inbounds nuw i8, ptr %0, i64 1184
  store ptr %6, ptr %5, align 8, !tbaa !209
  %7 = getelementptr inbounds nuw i8, ptr %0, i64 1176
  store i64 1032, ptr %7, align 8, !tbaa !211
  %8 = getelementptr inbounds nuw i8, ptr %0, i64 2216
  %9 = getelementptr inbounds nuw i8, ptr %0, i64 2232
  store ptr %9, ptr %8, align 8, !tbaa !209
  %10 = getelementptr inbounds nuw i8, ptr %0, i64 2224
  store i64 1032, ptr %10, align 8, !tbaa !211
  %11 = getelementptr inbounds nuw i8, ptr %0, i64 3264
  %12 = getelementptr inbounds nuw i8, ptr %0, i64 3280
  store ptr %12, ptr %11, align 8, !tbaa !209
  %13 = getelementptr inbounds nuw i8, ptr %0, i64 3272
  store i64 1032, ptr %13, align 8, !tbaa !211
  %14 = getelementptr inbounds nuw i8, ptr %0, i64 4312
  %15 = getelementptr inbounds nuw i8, ptr %0, i64 4328
  store ptr %15, ptr %14, align 8, !tbaa !209
  %16 = getelementptr inbounds nuw i8, ptr %0, i64 4320
  store i64 1032, ptr %16, align 8, !tbaa !211
  %17 = getelementptr inbounds nuw i8, ptr %0, i64 5360
  %18 = getelementptr inbounds nuw i8, ptr %0, i64 5376
  store ptr %18, ptr %17, align 8, !tbaa !209
  %19 = getelementptr inbounds nuw i8, ptr %0, i64 5368
  store i64 1032, ptr %19, align 8, !tbaa !211
  %20 = getelementptr inbounds nuw i8, ptr %0, i64 6408
  %21 = getelementptr inbounds nuw i8, ptr %0, i64 6424
  store ptr %21, ptr %20, align 8, !tbaa !209
  %22 = getelementptr inbounds nuw i8, ptr %0, i64 6416
  store i64 1032, ptr %22, align 8, !tbaa !211
  %23 = getelementptr inbounds nuw i8, ptr %0, i64 8
  %24 = getelementptr inbounds nuw i8, ptr %0, i64 16
  %25 = load i64, ptr %24, align 8, !tbaa !41
  %26 = invoke noundef nonnull align 8 dereferenceable(32) ptr @_ZNSt7__cxx1112basic_stringIcSt11char_traitsIcESaIcEE10_M_replaceEmmPKcm(ptr noundef nonnull align 8 dereferenceable(32) %23, i64 noundef 0, i64 noundef %25, ptr noundef nonnull @.str.8, i64 noundef 39)
          to label %_ZNSt7__cxx1112basic_stringIcSt11char_traitsIcESaIcEEaSEPKc.exit unwind label %31

_ZNSt7__cxx1112basic_stringIcSt11char_traitsIcESaIcEEaSEPKc.exit: ; preds = %1
  %27 = getelementptr inbounds nuw i8, ptr %0, i64 80
  store i8 1, ptr %27, align 8, !tbaa !212
  %28 = getelementptr inbounds nuw i8, ptr %0, i64 7520
  store ptr null, ptr %28, align 8, !tbaa !215
  %29 = getelementptr inbounds nuw i8, ptr %0, i64 7632
  store ptr null, ptr %29, align 8, !tbaa !219
  %30 = getelementptr inbounds nuw i8, ptr %0, i64 7680
  tail call void @llvm.memset.p0.i64(ptr noundef nonnull align 8 dereferenceable(1276) %30, i8 0, i64 1276, i1 false)
  ret void

31:                                               ; preds = %1
  %32 = landingpad { ptr, i32 }
          cleanup
  %33 = load ptr, ptr %20, align 8, !tbaa !209
  %.not.i.i = icmp eq ptr %33, %21
  br i1 %.not.i.i, label %_ZN2cv10AutoBufferIhLm1032EED2Ev.exit, label %34

34:                                               ; preds = %31
  %35 = icmp eq ptr %33, null
  br i1 %35, label %37, label %36

36:                                               ; preds = %34
  tail call void @_ZdaPv(ptr noundef nonnull %33) #32
  br label %37

37:                                               ; preds = %36, %34
  store ptr %21, ptr %20, align 8, !tbaa !209
  store i64 1032, ptr %22, align 8, !tbaa !211
  br label %_ZN2cv10AutoBufferIhLm1032EED2Ev.exit

_ZN2cv10AutoBufferIhLm1032EED2Ev.exit:            ; preds = %31, %37
  %38 = load ptr, ptr %17, align 8, !tbaa !209
  %.not.i.i2 = icmp eq ptr %38, %18
  br i1 %.not.i.i2, label %_ZN2cv10AutoBufferIhLm1032EED2Ev.exit3, label %39

39:                                               ; preds = %_ZN2cv10AutoBufferIhLm1032EED2Ev.exit
  %40 = icmp eq ptr %38, null
  br i1 %40, label %42, label %41

41:                                               ; preds = %39
  tail call void @_ZdaPv(ptr noundef nonnull %38) #32
  br label %42

42:                                               ; preds = %41, %39
  store ptr %18, ptr %17, align 8, !tbaa !209
  store i64 1032, ptr %19, align 8, !tbaa !211
  br label %_ZN2cv10AutoBufferIhLm1032EED2Ev.exit3

_ZN2cv10AutoBufferIhLm1032EED2Ev.exit3:           ; preds = %_ZN2cv10AutoBufferIhLm1032EED2Ev.exit, %42
  %43 = load ptr, ptr %14, align 8, !tbaa !209
  %.not.i.i4 = icmp eq ptr %43, %15
  br i1 %.not.i.i4, label %_ZN2cv10AutoBufferIhLm1032EED2Ev.exit5, label %44

44:                                               ; preds = %_ZN2cv10AutoBufferIhLm1032EED2Ev.exit3
  %45 = icmp eq ptr %43, null
  br i1 %45, label %47, label %46

46:                                               ; preds = %44
  tail call void @_ZdaPv(ptr noundef nonnull %43) #32
  br label %47

47:                                               ; preds = %46, %44
  store ptr %15, ptr %14, align 8, !tbaa !209
  store i64 1032, ptr %16, align 8, !tbaa !211
  br label %_ZN2cv10AutoBufferIhLm1032EED2Ev.exit5

_ZN2cv10AutoBufferIhLm1032EED2Ev.exit5:           ; preds = %_ZN2cv10AutoBufferIhLm1032EED2Ev.exit3, %47
  %48 = load ptr, ptr %11, align 8, !tbaa !209
  %.not.i.i6 = icmp eq ptr %48, %12
  br i1 %.not.i.i6, label %_ZN2cv10AutoBufferIhLm1032EED2Ev.exit7, label %49

49:                                               ; preds = %_ZN2cv10AutoBufferIhLm1032EED2Ev.exit5
  %50 = icmp eq ptr %48, null
  br i1 %50, label %52, label %51

51:                                               ; preds = %49
  tail call void @_ZdaPv(ptr noundef nonnull %48) #32
  br label %52

52:                                               ; preds = %51, %49
  store ptr %12, ptr %11, align 8, !tbaa !209
  store i64 1032, ptr %13, align 8, !tbaa !211
  br label %_ZN2cv10AutoBufferIhLm1032EED2Ev.exit7

_ZN2cv10AutoBufferIhLm1032EED2Ev.exit7:           ; preds = %_ZN2cv10AutoBufferIhLm1032EED2Ev.exit5, %52
  %53 = load ptr, ptr %8, align 8, !tbaa !209
  %.not.i.i8 = icmp eq ptr %53, %9
  br i1 %.not.i.i8, label %_ZN2cv10AutoBufferIhLm1032EED2Ev.exit9, label %54

54:                                               ; preds = %_ZN2cv10AutoBufferIhLm1032EED2Ev.exit7
  %55 = icmp eq ptr %53, null
  br i1 %55, label %57, label %56

56:                                               ; preds = %54
  tail call void @_ZdaPv(ptr noundef nonnull %53) #32
  br label %57

57:                                               ; preds = %56, %54
  store ptr %9, ptr %8, align 8, !tbaa !209
  store i64 1032, ptr %10, align 8, !tbaa !211
  br label %_ZN2cv10AutoBufferIhLm1032EED2Ev.exit9

_ZN2cv10AutoBufferIhLm1032EED2Ev.exit9:           ; preds = %_ZN2cv10AutoBufferIhLm1032EED2Ev.exit7, %57
  %58 = load ptr, ptr %5, align 8, !tbaa !209
  %.not.i.i10 = icmp eq ptr %58, %6
  br i1 %.not.i.i10, label %_ZN2cv10AutoBufferIhLm1032EED2Ev.exit11, label %59

59:                                               ; preds = %_ZN2cv10AutoBufferIhLm1032EED2Ev.exit9
  %60 = icmp eq ptr %58, null
  br i1 %60, label %62, label %61

61:                                               ; preds = %59
  tail call void @_ZdaPv(ptr noundef nonnull %58) #32
  br label %62

62:                                               ; preds = %61, %59
  store ptr %6, ptr %5, align 8, !tbaa !209
  store i64 1032, ptr %7, align 8, !tbaa !211
  br label %_ZN2cv10AutoBufferIhLm1032EED2Ev.exit11

_ZN2cv10AutoBufferIhLm1032EED2Ev.exit11:          ; preds = %_ZN2cv10AutoBufferIhLm1032EED2Ev.exit9, %62
  %63 = load ptr, ptr %2, align 8, !tbaa !209
  %.not.i.i12 = icmp eq ptr %63, %3
  br i1 %.not.i.i12, label %_ZN2cv10AutoBufferIhLm1032EED2Ev.exit13, label %64

64:                                               ; preds = %_ZN2cv10AutoBufferIhLm1032EED2Ev.exit11
  %65 = icmp eq ptr %63, null
  br i1 %65, label %67, label %66

66:                                               ; preds = %64
  tail call void @_ZdaPv(ptr noundef nonnull %63) #32
  br label %67

67:                                               ; preds = %66, %64
  store ptr %3, ptr %2, align 8, !tbaa !209
  store i64 1032, ptr %4, align 8, !tbaa !211
  br label %_ZN2cv10AutoBufferIhLm1032EED2Ev.exit13

_ZN2cv10AutoBufferIhLm1032EED2Ev.exit13:          ; preds = %_ZN2cv10AutoBufferIhLm1032EED2Ev.exit11, %67
  tail call void @_ZN2cv16BaseImageEncoderD2Ev(ptr noundef nonnull align 8 dereferenceable(120) %0) #33
  resume { ptr, i32 } %32
}